; Function Attrs: mustprogress uwtable
define noundef i32 @_ZN6icu_7522RuleBasedBreakIterator5firstEv(ptr nocapture noundef nonnull readonly align 8 dereferenceable(745) %this) unnamed_addr #1 align 2 {
entry:
  %status = alloca i32, align 4
  store i32 0, ptr %status, align 4
  %fBreakCache = getelementptr inbounds i8, ptr %this, i64 648
  %0 = load ptr, ptr %fBreakCache, align 8
  %call = tail call noundef signext i8 @_ZN6icu_7522RuleBasedBreakIterator10BreakCache4seekEi(ptr noundef nonnull align 8 dereferenceable(832) %0, i32 noundef 0)
  %tobool.not = icmp eq i8 %call, 0
  br i1 %tobool.not, label %if.then, label %if.end

if.then:                                          ; preds = %entry
  %1 = load ptr, ptr %fBreakCache, align 8
  %call3 = call noundef signext i8 @_ZN6icu_7522RuleBasedBreakIterator10BreakCache12populateNearEiR10UErrorCode(ptr noundef nonnull align 8 dereferenceable(832) %1, i32 noundef 0, ptr noundef nonnull align 4 dereferenceable(4) %status)
  br label %if.end

if.end:                                           ; preds = %if.then, %entry
  %2 = load ptr, ptr %fBreakCache, align 8
  %call5 = call noundef i32 @_ZN6icu_7522RuleBasedBreakIterator10BreakCache7currentEv(ptr noundef nonnull align 8 dereferenceable(832) %2)
  ret i32 0
}